target datalayout = "e-m:e-p270:32:32-p271:32:32-p272:64:64-i64:64-i128:128-f80:128-n8:16:32:64-S128"
target triple = "x86_64-pc-linux-gnu"

%struct.radix_thread_st = type { ptr, ptr, ptr, i64, i64, [8 x ptr], [8 x ptr], ptr, ptr, ptr, i32, i32, i64 }

@.str.74 = private unnamed_addr constant [38 x i8] c"../openssl/test/radix/quic_bindings.c\00", align 1
@radix_thread = internal global i32 0, align 4
@.str.145 = private unnamed_addr constant [3 x i8] c"rt\00", align 1
@.str.146 = private unnamed_addr constant [39 x i8] c"CRYPTO_THREAD_get_local(&radix_thread)\00", align 1
@.str.147 = private unnamed_addr constant [43 x i8] c"CRYPTO_THREAD_set_local(&radix_thread, rt)\00", align 1

; Function Attrs: nounwind uwtable
define internal i32 @radix_thread_init(ptr noundef %0) #0 {
  %2 = alloca i32, align 4
  %3 = alloca ptr, align 8
  store ptr %0, ptr %3, align 8, !tbaa !20
  %4 = load ptr, ptr %3, align 8, !tbaa !20
  %5 = call i32 @test_ptr(ptr noundef @.str.74, i32 noundef 564, ptr noundef @.str.145, ptr noundef %4)
  %6 = icmp ne i32 %5, 0
  br i1 %6, label %7, label %11

7:                                                ; preds = %1
  %8 = call ptr @CRYPTO_THREAD_get_local(ptr noundef @radix_thread)
  %9 = call i32 @test_ptr_null(ptr noundef @.str.74, i32 noundef 565, ptr noundef @.str.146, ptr noundef %8)
  %10 = icmp ne i32 %9, 0
  br i1 %10, label %12, label %11

11:                                               ; preds = %7, %1
  store i32 0, ptr %2, align 4
  br label %29

12:                                               ; preds = %7
  %13 = load ptr, ptr %3, align 8, !tbaa !20
  %14 = call i32 @CRYPTO_THREAD_set_local(ptr noundef @radix_thread, ptr noundef %13)
  %15 = icmp ne i32 %14, 0
  %16 = zext i1 %15 to i32
  %17 = call i32 @test_true(ptr noundef @.str.74, i32 noundef 568, ptr noundef @.str.147, i32 noundef %16)
  %18 = icmp ne i32 %17, 0
  br i1 %18, label %20, label %19

19:                                               ; preds = %12
  store i32 0, ptr %2, align 4
  br label %29

20:                                               ; preds = %12
  %21 = load ptr, ptr %3, align 8, !tbaa !20
  %22 = getelementptr inbounds nuw %struct.radix_thread_st, ptr %21, i32 0, i32 8
  %23 = load ptr, ptr %22, align 8, !tbaa !93
  %24 = call i32 @set_override_bio_out(ptr noundef %23)
  %25 = load ptr, ptr %3, align 8, !tbaa !20
  %26 = getelementptr inbounds nuw %struct.radix_thread_st, ptr %25, i32 0, i32 8
  %27 = load ptr, ptr %26, align 8, !tbaa !93
  %28 = call i32 @set_override_bio_err(ptr noundef %27)
  store i32 1, ptr %2, align 4
  br label %29

29:                                               ; preds = %20, %19, %11
  %30 = load i32, ptr %2, align 4
  ret i32 %30
}