; Function Attrs: nounwind uwtable
define internal fastcc range(i32 0, 2) i32 @radix_thread_init(ptr noundef %0) unnamed_addr #1 {
  %2 = tail call i32 @test_ptr(ptr noundef nonnull @.str.74, i32 noundef 564, ptr noundef nonnull @.str.145, ptr noundef %0) #12
  %.not = icmp eq i32 %2, 0
  br i1 %.not, label %17, label %3

3:                                                ; preds = %1
  %4 = tail call ptr @CRYPTO_THREAD_get_local(ptr noundef nonnull @radix_thread) #12
  %5 = tail call i32 @test_ptr_null(ptr noundef nonnull @.str.74, i32 noundef 565, ptr noundef nonnull @.str.146, ptr noundef %4) #12
  %.not4 = icmp eq i32 %5, 0
  br i1 %.not4, label %17, label %6

6:                                                ; preds = %3
  %7 = tail call i32 @CRYPTO_THREAD_set_local(ptr noundef nonnull @radix_thread, ptr noundef %0) #12
  %8 = icmp ne i32 %7, 0
  %9 = zext i1 %8 to i32
  %10 = tail call i32 @test_true(ptr noundef nonnull @.str.74, i32 noundef 568, ptr noundef nonnull @.str.147, i32 noundef %9) #12
  %.not5 = icmp eq i32 %10, 0
  br i1 %.not5, label %17, label %11

11:                                               ; preds = %6
  %12 = getelementptr inbounds nuw i8, ptr %0, i64 176
  %13 = load ptr, ptr %12, align 8, !tbaa !42
  %14 = tail call i32 @set_override_bio_out(ptr noundef %13) #12
  %15 = load ptr, ptr %12, align 8, !tbaa !42
  %16 = tail call i32 @set_override_bio_err(ptr noundef %15) #12
  br label %17

17:                                               ; preds = %6, %1, %3, %11
  %.0 = phi i32 [ 1, %11 ], [ 0, %3 ], [ 0, %1 ], [ 0, %6 ]
  ret i32 %.0
}